target datalayout = "e-m:e-p270:32:32-p271:32:32-p272:64:64-i64:64-i128:128-f80:128-n8:16:32:64-S128"
target triple = "x86_64-pc-linux-gnu"

; Function Attrs: nounwind uwtable
define void @uriWriteQuadToDoubleByte(ptr noundef %0, i32 noundef %1, ptr noundef %2) #0 {
  %4 = alloca ptr, align 8
  %5 = alloca i32, align 4
  %6 = alloca ptr, align 8
  store ptr %0, ptr %4, align 8, !tbaa !3
  store i32 %1, ptr %5, align 4, !tbaa !8
  store ptr %2, ptr %6, align 8, !tbaa !3
  %7 = load i32, ptr %5, align 4, !tbaa !8
  switch i32 %7, label %78 [
    i32 1, label %8
    i32 2, label %16
    i32 3, label %32
    i32 4, label %51
  ]

8:                                                ; preds = %3
  %9 = load ptr, ptr %6, align 8, !tbaa !3
  %10 = getelementptr inbounds i8, ptr %9, i64 0
  store i8 0, ptr %10, align 1, !tbaa !10
  %11 = load ptr, ptr %4, align 8, !tbaa !3
  %12 = getelementptr inbounds i8, ptr %11, i64 0
  %13 = load i8, ptr %12, align 1, !tbaa !10
  %14 = load ptr, ptr %6, align 8, !tbaa !3
  %15 = getelementptr inbounds i8, ptr %14, i64 1
  store i8 %13, ptr %15, align 1, !tbaa !10
  br label %78

16:                                               ; preds = %3
  %17 = load ptr, ptr %6, align 8, !tbaa !3
  %18 = getelementptr inbounds i8, ptr %17, i64 0
  store i8 0, ptr %18, align 1, !tbaa !10
  %19 = load ptr, ptr %4, align 8, !tbaa !3
  %20 = getelementptr inbounds i8, ptr %19, i64 0
  %21 = load i8, ptr %20, align 1, !tbaa !10
  %22 = zext i8 %21 to i32
  %23 = mul nsw i32 16, %22
  %24 = load ptr, ptr %4, align 8, !tbaa !3
  %25 = getelementptr inbounds i8, ptr %24, i64 1
  %26 = load i8, ptr %25, align 1, !tbaa !10
  %27 = zext i8 %26 to i32
  %28 = add nsw i32 %23, %27
  %29 = trunc i32 %28 to i8
  %30 = load ptr, ptr %6, align 8, !tbaa !3
  %31 = getelementptr inbounds i8, ptr %30, i64 1
  store i8 %29, ptr %31, align 1, !tbaa !10
  br label %78

32:                                               ; preds = %3
  %33 = load ptr, ptr %4, align 8, !tbaa !3
  %34 = getelementptr inbounds i8, ptr %33, i64 0
  %35 = load i8, ptr %34, align 1, !tbaa !10
  %36 = load ptr, ptr %6, align 8, !tbaa !3
  %37 = getelementptr inbounds i8, ptr %36, i64 0
  store i8 %35, ptr %37, align 1, !tbaa !10
  %38 = load ptr, ptr %4, align 8, !tbaa !3
  %39 = getelementptr inbounds i8, ptr %38, i64 1
  %40 = load i8, ptr %39, align 1, !tbaa !10
  %41 = zext i8 %40 to i32
  %42 = mul nsw i32 16, %41
  %43 = load ptr, ptr %4, align 8, !tbaa !3
  %44 = getelementptr inbounds i8, ptr %43, i64 2
  %45 = load i8, ptr %44, align 1, !tbaa !10
  %46 = zext i8 %45 to i32
  %47 = add nsw i32 %42, %46
  %48 = trunc i32 %47 to i8
  %49 = load ptr, ptr %6, align 8, !tbaa !3
  %50 = getelementptr inbounds i8, ptr %49, i64 1
  store i8 %48, ptr %50, align 1, !tbaa !10
  br label %78

51:                                               ; preds = %3
  %52 = load ptr, ptr %4, align 8, !tbaa !3
  %53 = getelementptr inbounds i8, ptr %52, i64 0
  %54 = load i8, ptr %53, align 1, !tbaa !10
  %55 = zext i8 %54 to i32
  %56 = mul nsw i32 16, %55
  %57 = load ptr, ptr %4, align 8, !tbaa !3
  %58 = getelementptr inbounds i8, ptr %57, i64 1
  %59 = load i8, ptr %58, align 1, !tbaa !10
  %60 = zext i8 %59 to i32
  %61 = add nsw i32 %56, %60
  %62 = trunc i32 %61 to i8
  %63 = load ptr, ptr %6, align 8, !tbaa !3
  %64 = getelementptr inbounds i8, ptr %63, i64 0
  store i8 %62, ptr %64, align 1, !tbaa !10
  %65 = load ptr, ptr %4, align 8, !tbaa !3
  %66 = getelementptr inbounds i8, ptr %65, i64 2
  %67 = load i8, ptr %66, align 1, !tbaa !10
  %68 = zext i8 %67 to i32
  %69 = mul nsw i32 16, %68
  %70 = load ptr, ptr %4, align 8, !tbaa !3
  %71 = getelementptr inbounds i8, ptr %70, i64 3
  %72 = load i8, ptr %71, align 1, !tbaa !10
  %73 = zext i8 %72 to i32
  %74 = add nsw i32 %69, %73
  %75 = trunc i32 %74 to i8
  %76 = load ptr, ptr %6, align 8, !tbaa !3
  %77 = getelementptr inbounds i8, ptr %76, i64 1
  store i8 %75, ptr %77, align 1, !tbaa !10
  br label %78

78:                                               ; preds = %3, %51, %32, %16, %8
  ret void
}

; Function Attrs: nounwind uwtable
define zeroext i8 @uriGetOctetValue(ptr noundef %0, i32 noundef %1) #0 {
  %3 = alloca i8, align 1
  %4 = alloca ptr, align 8
  %5 = alloca i32, align 4
  store ptr %0, ptr %4, align 8, !tbaa !3
  store i32 %1, ptr %5, align 4, !tbaa !8
  %6 = load i32, ptr %5, align 4, !tbaa !8
  switch i32 %6, label %24 [
    i32 1, label %7
    i32 2, label %11
    i32 3, label %23
  ]

7:                                                ; preds = %2
  %8 = load ptr, ptr %4, align 8, !tbaa !3
  %9 = getelementptr inbounds i8, ptr %8, i64 0
  %10 = load i8, ptr %9, align 1, !tbaa !10
  store i8 %10, ptr %3, align 1
  br label %42

11:                                               ; preds = %2
  %12 = load ptr, ptr %4, align 8, !tbaa !3
  %13 = getelementptr inbounds i8, ptr %12, i64 0
  %14 = load i8, ptr %13, align 1, !tbaa !10
  %15 = zext i8 %14 to i32
  %16 = mul nsw i32 10, %15
  %17 = load ptr, ptr %4, align 8, !tbaa !3
  %18 = getelementptr inbounds i8, ptr %17, i64 1
  %19 = load i8, ptr %18, align 1, !tbaa !10
  %20 = zext i8 %19 to i32
  %21 = add nsw i32 %16, %20
  %22 = trunc i32 %21 to i8
  store i8 %22, ptr %3, align 1
  br label %42

23:                                               ; preds = %2
  br label %24

24:                                               ; preds = %2, %23
  %25 = load ptr, ptr %4, align 8, !tbaa !3
  %26 = getelementptr inbounds i8, ptr %25, i64 0
  %27 = load i8, ptr %26, align 1, !tbaa !10
  %28 = zext i8 %27 to i32
  %29 = mul nsw i32 100, %28
  %30 = load ptr, ptr %4, align 8, !tbaa !3
  %31 = getelementptr inbounds i8, ptr %30, i64 1
  %32 = load i8, ptr %31, align 1, !tbaa !10
  %33 = zext i8 %32 to i32
  %34 = mul nsw i32 10, %33
  %35 = add nsw i32 %29, %34
  %36 = load ptr, ptr %4, align 8, !tbaa !3
  %37 = getelementptr inbounds i8, ptr %36, i64 2
  %38 = load i8, ptr %37, align 1, !tbaa !10
  %39 = zext i8 %38 to i32
  %40 = add nsw i32 %35, %39
  %41 = trunc i32 %40 to i8
  store i8 %41, ptr %3, align 1
  br label %42

42:                                               ; preds = %24, %11, %7
  %43 = load i8, ptr %3, align 1
  ret i8 %43
}


!llvm.module.flags = !{!0, !1, !2}

!0 = !{i32 1, !"wchar_size", i32 4}
!1 = !{i32 8, !"PIC Level", i32 2}
!2 = !{i32 7, !"uwtable", i32 2}
!3 = !{!4, !4, i64 0}
!4 = !{!"p1 omnipotent char", !5, i64 0}
!5 = !{!"any pointer", !6, i64 0}
!6 = !{!"omnipotent char", !7, i64 0}
!7 = !{!"Simple C/C++ TBAA"}
!8 = !{!9, !9, i64 0}
!9 = !{!"int", !6, i64 0}
!10 = !{!6, !6, i64 0}
